libKF5Kipi.so.32.0.0:_ZN4KIPI12ConfigWidget11qt_metacallEN11QMetaObject4CallEiPPv
libKF5Kipi.so.32.0.0:_ZN4KIPI12ConfigWidget11qt_metacastEPKc
libKF5Kipi.so.32.0.0:_ZN4KIPI12ConfigWidget18signalSearchResultEi
libKF5Kipi.so.32.0.0:_ZN4KIPI12ConfigWidget5applyEv
libKF5Kipi.so.32.0.0:_ZN4KIPI12ConfigWidget8clearAllEv
libKF5Kipi.so.32.0.0:_ZN4KIPI12ConfigWidget9selectAllEv
libKF5Kipi.so.32.0.0:_ZN4KIPI12ConfigWidget9setFilterERK7QStringN2Qt15CaseSensitivityE
libKF5Kipi.so.32.0.0:_ZN4KIPI12ConfigWidgetC1EP7QWidget
libKF5Kipi.so.32.0.0:_ZN4KIPI12ConfigWidgetC2EP7QWidget
libKF5Kipi.so.32.0.0:_ZN4KIPI12ConfigWidgetD0Ev
libKF5Kipi.so.32.0.0:_ZN4KIPI12ConfigWidgetD1Ev
libKF5Kipi.so.32.0.0:_ZN4KIPI12ConfigWidgetD2Ev
libKF5Kipi.so.32.0.0:_ZN4KIPI12PluginLoader10pluginListEv
libKF5Kipi.so.32.0.0:_ZN4KIPI12PluginLoader11loadPluginsEv
libKF5Kipi.so.32.0.0:_ZN4KIPI12PluginLoader11qt_metacallEN11QMetaObject4CallEiPPv
libKF5Kipi.so.32.0.0:_ZN4KIPI12PluginLoader11qt_metacastEPKc
libKF5Kipi.so.32.0.0:_ZN4KIPI12PluginLoader12setInterfaceEPNS_9InterfaceE
libKF5Kipi.so.32.0.0:_ZN4KIPI12PluginLoader21setIgnoredPluginsListERK11QStringList
libKF5Kipi.so.32.0.0:_ZN4KIPI12PluginLoader24setDisabledPluginActionsERK11QStringList
libKF5Kipi.so.32.0.0:_ZN4KIPI12PluginLoader4Info13setShouldLoadEb
libKF5Kipi.so.32.0.0:_ZN4KIPI12PluginLoader4Info6reloadEv
libKF5Kipi.so.32.0.0:_ZN4KIPI12PluginLoader4InfoC1EP13KXmlGuiWindowRK28QExplicitlySharedDataPointerI8KServiceEb
libKF5Kipi.so.32.0.0:_ZN4KIPI12PluginLoader4InfoC2EP13KXmlGuiWindowRK28QExplicitlySharedDataPointerI8KServiceEb
libKF5Kipi.so.32.0.0:_ZN4KIPI12PluginLoader4InfoD1Ev
libKF5Kipi.so.32.0.0:_ZN4KIPI12PluginLoader4InfoD2Ev
libKF5Kipi.so.32.0.0:_ZN4KIPI12PluginLoader4initEv
libKF5Kipi.so.32.0.0:_ZN4KIPI12PluginLoader4plugEPNS0_4InfoE
libKF5Kipi.so.32.0.0:_ZN4KIPI12PluginLoader6replugEv
libKF5Kipi.so.32.0.0:_ZN4KIPI12PluginLoader6unplugEPNS0_4InfoE
libKF5Kipi.so.32.0.0:_ZN4KIPI12PluginLoader8instanceEv
libKF5Kipi.so.32.0.0:_ZN4KIPI12PluginLoaderC1EP13KXmlGuiWindow
libKF5Kipi.so.32.0.0:_ZN4KIPI12PluginLoaderC1Ev
libKF5Kipi.so.32.0.0:_ZN4KIPI12PluginLoaderC2EP13KXmlGuiWindow
libKF5Kipi.so.32.0.0:_ZN4KIPI12PluginLoaderC2Ev
libKF5Kipi.so.32.0.0:_ZN4KIPI12PluginLoaderD0Ev
libKF5Kipi.so.32.0.0:_ZN4KIPI12PluginLoaderD1Ev
libKF5Kipi.so.32.0.0:_ZN4KIPI12PluginLoaderD2Ev
libKF5Kipi.so.32.0.0:_ZN4KIPI12UploadWidget11qt_metacallEN11QMetaObject4CallEiPPv
libKF5Kipi.so.32.0.0:_ZN4KIPI12UploadWidget11qt_metacastEPKc
libKF5Kipi.so.32.0.0:_ZN4KIPI12UploadWidget16selectionChangedEv
libKF5Kipi.so.32.0.0:_ZN4KIPI12UploadWidgetC1EP7QWidget
libKF5Kipi.so.32.0.0:_ZN4KIPI12UploadWidgetC2EP7QWidget
libKF5Kipi.so.32.0.0:_ZN4KIPI12UploadWidgetD0Ev
libKF5Kipi.so.32.0.0:_ZN4KIPI12UploadWidgetD1Ev
libKF5Kipi.so.32.0.0:_ZN4KIPI12UploadWidgetD2Ev
libKF5Kipi.so.32.0.0:_ZN4KIPI13EditHintScope13changeAbortedEv
libKF5Kipi.so.32.0.0:_ZN4KIPI13EditHintScopeC1EPNS_9InterfaceERK4QUrl6QFlagsINS_8EditHintEE
libKF5Kipi.so.32.0.0:_ZN4KIPI13EditHintScopeC2EPNS_9InterfaceERK4QUrl6QFlagsINS_8EditHintEE
libKF5Kipi.so.32.0.0:_ZN4KIPI13EditHintScopeD1Ev
libKF5Kipi.so.32.0.0:_ZN4KIPI13EditHintScopeD2Ev
libKF5Kipi.so.32.0.0:_ZN4KIPI14FileReadLocker6relockEv
libKF5Kipi.so.32.0.0:_ZN4KIPI14FileReadLocker6unlockEv
libKF5Kipi.so.32.0.0:_ZN4KIPI14FileReadLockerC1EPNS_15ImageInfoSharedE
libKF5Kipi.so.32.0.0:_ZN4KIPI14FileReadLockerC1EPNS_9InterfaceERK4QUrl
libKF5Kipi.so.32.0.0:_ZN4KIPI14FileReadLockerC2EPNS_15ImageInfoSharedE
libKF5Kipi.so.32.0.0:_ZN4KIPI14FileReadLockerC2EPNS_9InterfaceERK4QUrl
libKF5Kipi.so.32.0.0:_ZN4KIPI14FileReadLockerD1Ev
libKF5Kipi.so.32.0.0:_ZN4KIPI14FileReadLockerD2Ev
libKF5Kipi.so.32.0.0:_ZN4KIPI15FileWriteLocker6relockEv
libKF5Kipi.so.32.0.0:_ZN4KIPI15FileWriteLocker6unlockEv
libKF5Kipi.so.32.0.0:_ZN4KIPI15FileWriteLockerC1EPNS_15ImageInfoSharedE
libKF5Kipi.so.32.0.0:_ZN4KIPI15FileWriteLockerC1EPNS_9InterfaceERK4QUrl
libKF5Kipi.so.32.0.0:_ZN4KIPI15FileWriteLockerC2EPNS_15ImageInfoSharedE
libKF5Kipi.so.32.0.0:_ZN4KIPI15FileWriteLockerC2EPNS_9InterfaceERK4QUrl
libKF5Kipi.so.32.0.0:_ZN4KIPI15FileWriteLockerD1Ev
libKF5Kipi.so.32.0.0:_ZN4KIPI15FileWriteLockerD2Ev
libKF5Kipi.so.32.0.0:_ZN4KIPI15ImageCollectionC1EPNS_21ImageCollectionSharedE
libKF5Kipi.so.32.0.0:_ZN4KIPI15ImageCollectionC1ERKS0_
libKF5Kipi.so.32.0.0:_ZN4KIPI15ImageCollectionC1Ev
libKF5Kipi.so.32.0.0:_ZN4KIPI15ImageCollectionC2EPNS_21ImageCollectionSharedE
libKF5Kipi.so.32.0.0:_ZN4KIPI15ImageCollectionC2ERKS0_
libKF5Kipi.so.32.0.0:_ZN4KIPI15ImageCollectionC2Ev
libKF5Kipi.so.32.0.0:_ZN4KIPI15ImageCollectionD1Ev
libKF5Kipi.so.32.0.0:_ZN4KIPI15ImageCollectionD2Ev
libKF5Kipi.so.32.0.0:_ZN4KIPI15ImageCollectionaSERKS0_
libKF5Kipi.so.32.0.0:_ZN4KIPI15ImageInfoShared16clearReservationEP7QObject
libKF5Kipi.so.32.0.0:_ZN4KIPI15ImageInfoShared6addRefEv
libKF5Kipi.so.32.0.0:_ZN4KIPI15ImageInfoShared9cloneDataEPS0_
libKF5Kipi.so.32.0.0:_ZN4KIPI15ImageInfoShared9removeRefEv
libKF5Kipi.so.32.0.0:_ZN4KIPI15ImageInfoSharedC1EPNS_9InterfaceERK4QUrl
libKF5Kipi.so.32.0.0:_ZN4KIPI15ImageInfoSharedC1Ev
libKF5Kipi.so.32.0.0:_ZN4KIPI15ImageInfoSharedC2EPNS_9InterfaceERK4QUrl
libKF5Kipi.so.32.0.0:_ZN4KIPI15ImageInfoSharedC2Ev
libKF5Kipi.so.32.0.0:_ZN4KIPI15ImageInfoSharedD0Ev
libKF5Kipi.so.32.0.0:_ZN4KIPI15ImageInfoSharedD1Ev
libKF5Kipi.so.32.0.0:_ZN4KIPI15ImageInfoSharedD2Ev
libKF5Kipi.so.32.0.0:_ZN4KIPI21ImageCollectionShared11isDirectoryEv
libKF5Kipi.so.32.0.0:_ZN4KIPI21ImageCollectionShared13uploadRootUrlEv
libKF5Kipi.so.32.0.0:_ZN4KIPI21ImageCollectionShared14uploadRootNameEv
libKF5Kipi.so.32.0.0:_ZN4KIPI21ImageCollectionShared3urlEv
libKF5Kipi.so.32.0.0:_ZN4KIPI21ImageCollectionShared4dateEv
libKF5Kipi.so.32.0.0:_ZN4KIPI21ImageCollectionShared6addRefEv
libKF5Kipi.so.32.0.0:_ZN4KIPI21ImageCollectionShared7commentEv
libKF5Kipi.so.32.0.0:_ZN4KIPI21ImageCollectionShared8categoryEv
libKF5Kipi.so.32.0.0:_ZN4KIPI21ImageCollectionShared9removeRefEv
libKF5Kipi.so.32.0.0:_ZN4KIPI21ImageCollectionShared9uploadUrlEv
libKF5Kipi.so.32.0.0:_ZN4KIPI21ImageCollectionSharedC1Ev
libKF5Kipi.so.32.0.0:_ZN4KIPI21ImageCollectionSharedC2Ev
libKF5Kipi.so.32.0.0:_ZN4KIPI21ImageCollectionSharedD0Ev
libKF5Kipi.so.32.0.0:_ZN4KIPI21ImageCollectionSharedD1Ev
libKF5Kipi.so.32.0.0:_ZN4KIPI21ImageCollectionSharedD2Ev
libKF5Kipi.so.32.0.0:_ZN4KIPI21ImageCollectionSharedeqERS0_
libKF5Kipi.so.32.0.0:_ZN4KIPI23ImageCollectionSelector11qt_metacallEN11QMetaObject4CallEiPPv
libKF5Kipi.so.32.0.0:_ZN4KIPI23ImageCollectionSelector11qt_metacastEPKc
libKF5Kipi.so.32.0.0:_ZN4KIPI23ImageCollectionSelector16selectionChangedEv
libKF5Kipi.so.32.0.0:_ZN4KIPI23ImageCollectionSelector24enableVirtualCollectionsEb
libKF5Kipi.so.32.0.0:_ZN4KIPI23ImageCollectionSelectorC1EP7QWidget
libKF5Kipi.so.32.0.0:_ZN4KIPI23ImageCollectionSelectorC2EP7QWidget
libKF5Kipi.so.32.0.0:_ZN4KIPI23ImageCollectionSelectorD0Ev
libKF5Kipi.so.32.0.0:_ZN4KIPI23ImageCollectionSelectorD1Ev
libKF5Kipi.so.32.0.0:_ZN4KIPI23ImageCollectionSelectorD2Ev
libKF5Kipi.so.32.0.0:_ZN4KIPI6Plugin11qt_metacallEN11QMetaObject4CallEiPPv
libKF5Kipi.so.32.0.0:_ZN4KIPI6Plugin11qt_metacastEPKc
libKF5Kipi.so.32.0.0:_ZN4KIPI6Plugin12clearActionsEv
libKF5Kipi.so.32.0.0:_ZN4KIPI6Plugin12mergeXMLFileEP13KXMLGUIClient
libKF5Kipi.so.32.0.0:_ZN4KIPI6Plugin13setUiBaseNameEPKc
libKF5Kipi.so.32.0.0:_ZN4KIPI6Plugin18setDefaultCategoryENS_8CategoryE
libKF5Kipi.so.32.0.0:_ZN4KIPI6Plugin5setupEP7QWidget
libKF5Kipi.so.32.0.0:_ZN4KIPI6Plugin7rebuildEv
libKF5Kipi.so.32.0.0:_ZN4KIPI6Plugin8setupXMLEv
libKF5Kipi.so.32.0.0:_ZN4KIPI6Plugin9addActionEP7QAction
libKF5Kipi.so.32.0.0:_ZN4KIPI6Plugin9addActionEP7QActionNS_8CategoryE
libKF5Kipi.so.32.0.0:_ZN4KIPI6Plugin9addActionERK7QStringP7QAction
libKF5Kipi.so.32.0.0:_ZN4KIPI6Plugin9addActionERK7QStringP7QActionNS_8CategoryE
libKF5Kipi.so.32.0.0:_ZN4KIPI6PluginC1EP7QObjectPKc
libKF5Kipi.so.32.0.0:_ZN4KIPI6PluginC2EP7QObjectPKc
libKF5Kipi.so.32.0.0:_ZN4KIPI6PluginD0Ev
libKF5Kipi.so.32.0.0:_ZN4KIPI6PluginD1Ev
libKF5Kipi.so.32.0.0:_ZN4KIPI6PluginD2Ev
libKF5Kipi.so.32.0.0:_ZN4KIPI9ImageInfo13addAttributesERK4QMapI7QString8QVariantE
libKF5Kipi.so.32.0.0:_ZN4KIPI9ImageInfo13delAttributesERK11QStringList
libKF5Kipi.so.32.0.0:_ZN4KIPI9ImageInfo15clearAttributesEv
libKF5Kipi.so.32.0.0:_ZN4KIPI9ImageInfo9cloneDataERKS0_
libKF5Kipi.so.32.0.0:_ZN4KIPI9ImageInfoC1EPNS_15ImageInfoSharedE
libKF5Kipi.so.32.0.0:_ZN4KIPI9ImageInfoC1ERKS0_
libKF5Kipi.so.32.0.0:_ZN4KIPI9ImageInfoC1Ev
libKF5Kipi.so.32.0.0:_ZN4KIPI9ImageInfoC2EPNS_15ImageInfoSharedE
libKF5Kipi.so.32.0.0:_ZN4KIPI9ImageInfoC2ERKS0_
libKF5Kipi.so.32.0.0:_ZN4KIPI9ImageInfoC2Ev
libKF5Kipi.so.32.0.0:_ZN4KIPI9ImageInfoD1Ev
libKF5Kipi.so.32.0.0:_ZN4KIPI9ImageInfoD2Ev
libKF5Kipi.so.32.0.0:_ZN4KIPI9ImageInfoaSERKS0_
libKF5Kipi.so.32.0.0:_ZN4KIPI9Interface10gotPreviewERK4QUrlRK6QImage
libKF5Kipi.so.32.0.0:_ZN4KIPI9Interface10thumbnailsERK5QListI4QUrlEi
libKF5Kipi.so.32.0.0:_ZN4KIPI9Interface11aboutToEditERK4QUrl6QFlagsINS_8EditHintEE
libKF5Kipi.so.32.0.0:_ZN4KIPI9Interface11qt_metacallEN11QMetaObject4CallEiPPv
libKF5Kipi.so.32.0.0:_ZN4KIPI9Interface11qt_metacastEPKc
libKF5Kipi.so.32.0.0:_ZN4KIPI9Interface12currentAlbumEv
libKF5Kipi.so.32.0.0:_ZN4KIPI9Interface12gotThumbnailERK4QUrlRK7QPixmap
libKF5Kipi.so.32.0.0:_ZN4KIPI9Interface13refreshImagesERK5QListI4QUrlE
libKF5Kipi.so.32.0.0:_ZN4KIPI9Interface15editingFinishedERK4QUrl6QFlagsINS_8EditHintEE
libKF5Kipi.so.32.0.0:_ZN4KIPI9Interface16clearReservationERK4QUrlP7QObject
libKF5Kipi.so.32.0.0:_ZN4KIPI9Interface16currentSelectionEv
libKF5Kipi.so.32.0.0:_ZN4KIPI9Interface16progressCanceledERK7QString
libKF5Kipi.so.32.0.0:_ZN4KIPI9Interface16selectionChangedEb
libKF5Kipi.so.32.0.0:_ZN4KIPI9Interface17progressCompletedERK7QString
libKF5Kipi.so.32.0.0:_ZN4KIPI9Interface17reservedForActionERK4QUrlRK7QString
libKF5Kipi.so.32.0.0:_ZN4KIPI9Interface18reservationClearedERK4QUrl
libKF5Kipi.so.32.0.0:_ZN4KIPI9Interface19currentAlbumChangedEb
libKF5Kipi.so.32.0.0:_ZN4KIPI9Interface20progressValueChangedERK7QStringf
libKF5Kipi.so.32.0.0:_ZN4KIPI9Interface21progressStatusChangedERK7QStringS3_
libKF5Kipi.so.32.0.0:_ZN4KIPI9Interface23supportedImageMimeTypesEb
libKF5Kipi.so.32.0.0:_ZN4KIPI9Interface24progressThumbnailChangedERK7QStringRK7QPixmap
libKF5Kipi.so.32.0.0:_ZN4KIPI9Interface7previewERK4QUrl
libKF5Kipi.so.32.0.0:_ZN4KIPI9Interface7previewERK4QUrli
libKF5Kipi.so.32.0.0:_ZN4KIPI9Interface7versionEv
libKF5Kipi.so.32.0.0:_ZN4KIPI9Interface8addImageERK4QUrlR7QString
libKF5Kipi.so.32.0.0:_ZN4KIPI9Interface8delImageERK4QUrl
libKF5Kipi.so.32.0.0:_ZN4KIPI9Interface8rawFilesEv
libKF5Kipi.so.32.0.0:_ZN4KIPI9Interface9allAlbumsEv
libKF5Kipi.so.32.0.0:_ZN4KIPI9Interface9saveImageERK4QUrlRK7QStringRK10QByteArrayjjbbPb
libKF5Kipi.so.32.0.0:_ZN4KIPI9Interface9thumbnailERK4QUrli
libKF5Kipi.so.32.0.0:_ZN4KIPI9InterfaceC1EP7QObjectRK7QString
libKF5Kipi.so.32.0.0:_ZN4KIPI9InterfaceC2EP7QObjectRK7QString
libKF5Kipi.so.32.0.0:_ZN4KIPI9InterfaceD0Ev
libKF5Kipi.so.32.0.0:_ZN4KIPI9InterfaceD1Ev
libKF5Kipi.so.32.0.0:_ZN4KIPI9InterfaceD2Ev
libKF5Kipi.so.32.0.0:_ZNK4KIPI12ConfigWidget10metaObjectEv
libKF5Kipi.so.32.0.0:_ZNK4KIPI12ConfigWidget5countEv
libKF5Kipi.so.32.0.0:_ZNK4KIPI12ConfigWidget6filterEv
libKF5Kipi.so.32.0.0:_ZNK4KIPI12ConfigWidget7activedEv
libKF5Kipi.so.32.0.0:_ZNK4KIPI12ConfigWidget7visibleEv
libKF5Kipi.so.32.0.0:_ZNK4KIPI12PluginLoader10metaObjectEv
libKF5Kipi.so.32.0.0:_ZNK4KIPI12PluginLoader12configWidgetEP7QWidget
libKF5Kipi.so.32.0.0:_ZNK4KIPI12PluginLoader18kipiPluginsVersionEv
libKF5Kipi.so.32.0.0:_ZNK4KIPI12PluginLoader21disabledPluginActionsEv
libKF5Kipi.so.32.0.0:_ZNK4KIPI12PluginLoader4Info10shouldLoadEv
libKF5Kipi.so.32.0.0:_ZNK4KIPI12PluginLoader4Info16pluginCategoriesEv
libKF5Kipi.so.32.0.0:_ZNK4KIPI12PluginLoader4Info4iconEv
libKF5Kipi.so.32.0.0:_ZNK4KIPI12PluginLoader4Info4nameEv
libKF5Kipi.so.32.0.0:_ZNK4KIPI12PluginLoader4Info5unameEv
libKF5Kipi.so.32.0.0:_ZNK4KIPI12PluginLoader4Info6authorEv
libKF5Kipi.so.32.0.0:_ZNK4KIPI12PluginLoader4Info6pluginEv
libKF5Kipi.so.32.0.0:_ZNK4KIPI12PluginLoader4Info7commentEv
libKF5Kipi.so.32.0.0:_ZNK4KIPI12PluginLoader4Info7libraryEv
libKF5Kipi.so.32.0.0:_ZNK4KIPI12PluginLoader4Info7serviceEv
libKF5Kipi.so.32.0.0:_ZNK4KIPI12PluginLoader9interfaceEv
libKF5Kipi.so.32.0.0:_ZNK4KIPI12UploadWidget10metaObjectEv
libKF5Kipi.so.32.0.0:_ZNK4KIPI12UploadWidget23selectedImageCollectionEv
libKF5Kipi.so.32.0.0:_ZNK4KIPI14FileReadLocker17fileReadWriteLockEv
libKF5Kipi.so.32.0.0:_ZNK4KIPI15FileWriteLocker17fileReadWriteLockEv
libKF5Kipi.so.32.0.0:_ZNK4KIPI15ImageCollection11isDirectoryEv
libKF5Kipi.so.32.0.0:_ZNK4KIPI15ImageCollection13uploadRootUrlEv
libKF5Kipi.so.32.0.0:_ZNK4KIPI15ImageCollection14uploadRootNameEv
libKF5Kipi.so.32.0.0:_ZNK4KIPI15ImageCollection3urlEv
libKF5Kipi.so.32.0.0:_ZNK4KIPI15ImageCollection4dateEv
libKF5Kipi.so.32.0.0:_ZNK4KIPI15ImageCollection4nameEv
libKF5Kipi.so.32.0.0:_ZNK4KIPI15ImageCollection6imagesEv
libKF5Kipi.so.32.0.0:_ZNK4KIPI15ImageCollection7commentEv
libKF5Kipi.so.32.0.0:_ZNK4KIPI15ImageCollection7isValidEv
libKF5Kipi.so.32.0.0:_ZNK4KIPI15ImageCollection8categoryEv
libKF5Kipi.so.32.0.0:_ZNK4KIPI15ImageCollection9uploadUrlEv
libKF5Kipi.so.32.0.0:_ZNK4KIPI15ImageCollectioneqERKS0_
libKF5Kipi.so.32.0.0:_ZNK4KIPI15ImageInfoShared14itemIsReservedEP7QString
libKF5Kipi.so.32.0.0:_ZNK4KIPI15ImageInfoShared16reserveForActionEP7QObjectRK7QString
libKF5Kipi.so.32.0.0:_ZNK4KIPI15ImageInfoShared19createReadWriteLockEv
libKF5Kipi.so.32.0.0:_ZNK4KIPI15ImageInfoShared3urlEv
libKF5Kipi.so.32.0.0:_ZNK4KIPI23ImageCollectionSelector10metaObjectEv
libKF5Kipi.so.32.0.0:_ZNK4KIPI23ImageCollectionSelector24selectedImageCollectionsEv
libKF5Kipi.so.32.0.0:_ZNK4KIPI6Plugin10metaObjectEv
libKF5Kipi.so.32.0.0:_ZNK4KIPI6Plugin10uiBaseNameEv
libKF5Kipi.so.32.0.0:_ZNK4KIPI6Plugin15defaultCategoryEv
libKF5Kipi.so.32.0.0:_ZNK4KIPI6Plugin7actionsEP7QWidget
libKF5Kipi.so.32.0.0:_ZNK4KIPI6Plugin8categoryEP7QAction
libKF5Kipi.so.32.0.0:_ZNK4KIPI6Plugin9interfaceEv
libKF5Kipi.so.32.0.0:_ZNK4KIPI9ImageInfo10attributesEv
libKF5Kipi.so.32.0.0:_ZNK4KIPI9ImageInfo3urlEv
libKF5Kipi.so.32.0.0:_ZNK4KIPI9Interface10getTagTreeEv
libKF5Kipi.so.32.0.0:_ZNK4KIPI9Interface10hasFeatureENS_8FeaturesE
libKF5Kipi.so.32.0.0:_ZNK4KIPI9Interface10hasFeatureERK7QString
libKF5Kipi.so.32.0.0:_ZNK4KIPI9Interface10metaObjectEv
libKF5Kipi.so.32.0.0:_ZNK4KIPI9Interface14itemIsReservedERK4QUrlP7QString
libKF5Kipi.so.32.0.0:_ZNK4KIPI9Interface16reserveForActionERK4QUrlP7QObjectRK7QString
libKF5Kipi.so.32.0.0:_ZNK4KIPI9Interface17progressScheduledERK7QStringbb
libKF5Kipi.so.32.0.0:_ZNK4KIPI9Interface19createReadWriteLockERK4QUrl
libKF5Kipi.so.32.0.0:_ZNK4KIPI9Interface23createMetadataProcessorEv
libKF5Kipi.so.32.0.0:_ZNK4KIPI9Interface8featuresEv
libKF5Kipi.so.32.0.0:_ZThn16_N4KIPI12ConfigWidgetD0Ev
libKF5Kipi.so.32.0.0:_ZThn16_N4KIPI12ConfigWidgetD1Ev
libKF5Kipi.so.32.0.0:_ZThn16_N4KIPI12UploadWidgetD0Ev
libKF5Kipi.so.32.0.0:_ZThn16_N4KIPI12UploadWidgetD1Ev
libKF5Kipi.so.32.0.0:_ZThn16_N4KIPI23ImageCollectionSelectorD0Ev
libKF5Kipi.so.32.0.0:_ZThn16_N4KIPI23ImageCollectionSelectorD1Ev
libKF5Kipi.so.32.0.0:_ZThn16_N4KIPI6PluginD0Ev
libKF5Kipi.so.32.0.0:_ZThn16_N4KIPI6PluginD1Ev
